target datalayout = "e-m:e-p270:32:32-p271:32:32-p272:64:64-i64:64-i128:128-f80:128-n8:16:32:64-S128"
target triple = "x86_64-unknown-linux-gnu"

%struct.QemuMutex = type { %union.pthread_mutex_t, i8 }
%union.pthread_mutex_t = type { %struct.__pthread_mutex_s }
%struct.__pthread_mutex_s = type { i32, i32, i32, i32, i32, i16, i16, %struct.__pthread_internal_list }
%struct.__pthread_internal_list = type { ptr, ptr }
%struct.RAMState = type { [2 x %struct.PageSearchStatus], i32, i64, ptr, i64, i32, i32, i64, i64, i64, i64, i64, i64, i8, i8, i64, i64, i64, %struct.QemuMutex, ptr, %struct.QemuMutex, %struct.anon.5, i32 }
%struct.PageSearchStatus = type { ptr, ptr, ptr, i64, i8, i8, i64, i64 }
%struct.anon.5 = type { ptr, ptr }

; Function Attrs: nounwind sspstrong uwtable
define internal void @ram_state_pending_estimate(ptr noundef %opaque, ptr noundef %must_precopy, ptr noundef %can_postcopy) #0 {
entry:
  %opaque.addr = alloca ptr, align 8
  %must_precopy.addr = alloca ptr, align 8
  %can_postcopy.addr = alloca ptr, align 8
  %temp = alloca ptr, align 8
  %rs = alloca ptr, align 8
  %remaining_size = alloca i64, align 8
  store ptr %opaque, ptr %opaque.addr, align 8
  store ptr %must_precopy, ptr %must_precopy.addr, align 8
  store ptr %can_postcopy, ptr %can_postcopy.addr, align 8
  %0 = load ptr, ptr %opaque.addr, align 8
  store ptr %0, ptr %temp, align 8
  %1 = load ptr, ptr %temp, align 8
  %2 = load ptr, ptr %1, align 8
  store ptr %2, ptr %rs, align 8
  %3 = load ptr, ptr %rs, align 8
  %migration_dirty_pages = getelementptr inbounds %struct.RAMState, ptr %3, i32 0, i32 17
  %4 = load i64, ptr %migration_dirty_pages, align 8
  %mul = mul i64 %4, 4096
  store i64 %mul, ptr %remaining_size, align 8
  %call = call zeroext i1 @migrate_postcopy_ram()
  br i1 %call, label %if.then, label %if.else

if.then:                                          ; preds = %entry
  %5 = load i64, ptr %remaining_size, align 8
  %6 = load ptr, ptr %can_postcopy.addr, align 8
  %7 = load i64, ptr %6, align 8
  %add = add i64 %7, %5
  store i64 %add, ptr %6, align 8
  br label %if.end

if.else:                                          ; preds = %entry
  %8 = load i64, ptr %remaining_size, align 8
  %9 = load ptr, ptr %must_precopy.addr, align 8
  %10 = load i64, ptr %9, align 8
  %add1 = add i64 %10, %8
  store i64 %add1, ptr %9, align 8
  br label %if.end

if.end:                                           ; preds = %if.else, %if.then
  ret void
}