; Function Attrs: nounwind sspstrong uwtable
define internal void @ram_state_pending_estimate(ptr noundef readonly captures(none) %opaque, ptr noundef captures(none) %must_precopy, ptr noundef captures(none) %can_postcopy) #0 {
entry:
  %0 = load ptr, ptr %opaque, align 8
  %migration_dirty_pages = getelementptr inbounds nuw i8, ptr %0, i64 224
  %1 = load i64, ptr %migration_dirty_pages, align 8
  %mul = shl i64 %1, 12
  %call = tail call zeroext i1 @migrate_postcopy_ram() #18
  %can_postcopy.must_precopy = select i1 %call, ptr %can_postcopy, ptr %must_precopy
  %2 = load i64, ptr %can_postcopy.must_precopy, align 8
  %add1 = add i64 %2, %mul
  store i64 %add1, ptr %can_postcopy.must_precopy, align 8
  ret void
}